; Function Attrs: mustprogress nounwind uwtable
define hidden noundef ptr @_ZN7i2sNode6ExpandEP5StateR9Node_ListP4Node(ptr noundef nonnull returned align 8 dereferenceable(104) %0, ptr nocapture noundef readnone %1, ptr nocapture noundef nonnull readnone align 8 dereferenceable(28) %2, ptr nocapture noundef readnone %3) unnamed_addr #0 align 2 {
  %5 = getelementptr inbounds i8, ptr %0, i64 54
  %6 = load i16, ptr %5, align 2
  %7 = icmp eq i16 %6, 4
  br i1 %7, label %8, label %34

8:                                                ; preds = %4
  %9 = getelementptr inbounds i8, ptr %0, i64 72
  %10 = load ptr, ptr %9, align 8
  %11 = load ptr, ptr %10, align 8
  %12 = getelementptr inbounds i8, ptr %11, i64 8
  %13 = load ptr, ptr %12, align 8
  %14 = tail call noundef i32 %13(ptr noundef nonnull align 8 dereferenceable(8) %10) #7
  %15 = getelementptr inbounds i8, ptr %0, i64 80
  %16 = load ptr, ptr %15, align 8
  %17 = load ptr, ptr %16, align 8
  %18 = getelementptr inbounds i8, ptr %17, i64 8
  %19 = load ptr, ptr %18, align 8
  %20 = tail call noundef i32 %19(ptr noundef nonnull align 8 dereferenceable(8) %16) #7
  %21 = getelementptr inbounds i8, ptr %0, i64 88
  %22 = load ptr, ptr %21, align 8
  %23 = load ptr, ptr %22, align 8
  %24 = getelementptr inbounds i8, ptr %23, i64 8
  %25 = load ptr, ptr %24, align 8
  %26 = tail call noundef i32 %25(ptr noundef nonnull align 8 dereferenceable(8) %22) #7
  %27 = load ptr, ptr %0, align 8
  %28 = getelementptr inbounds i8, ptr %27, i64 200
  %29 = load ptr, ptr %28, align 8
  %30 = tail call noundef i32 %29(ptr noundef nonnull align 8 dereferenceable(64) %0) #7
  %31 = add i32 %20, %14
  %32 = add i32 %31, %30
  %33 = add i32 %32, %26
  %.013 = add i32 %33, -1
  %.not14 = icmp slt i32 %.013, %32
  br i1 %.not14, label %._crit_edge, label %.lr.ph

.lr.ph:                                           ; preds = %8, %.lr.ph
  %.015 = phi i32 [ %.0, %.lr.ph ], [ %.013, %8 ]
  tail call void @_ZN4Node7del_reqEj(ptr noundef nonnull align 8 dereferenceable(52) %0, i32 noundef %.015) #7
  %.0 = add i32 %.015, -1
  %.not = icmp slt i32 %.0, %32
  br i1 %.not, label %._crit_edge, label %.lr.ph, !llvm.loop !99

._crit_edge:                                      ; preds = %.lr.ph, %8
  store i16 3, ptr %5, align 2
  br label %34

34:                                               ; preds = %4, %._crit_edge
  ret ptr %0
}